target datalayout = "e-m:e-p270:32:32-p271:32:32-p272:64:64-i64:64-i128:128-f80:128-n8:16:32:64-S128"
target triple = "x86_64-pc-linux-gnu"

%class.ciMethodData = type { %class.ciMetadata, i32, i32, ptr, i32, i32, i32, i8, i8, i64, i64, i64, i64, i32, %"class.MethodData::CompilerCounters" }
%class.ciMetadata = type { %class.ciBaseObject.base, ptr }
%class.ciBaseObject.base = type <{ ptr, i32 }>
%"class.MethodData::CompilerCounters" = type { i32, i32, i32, %union.anon }
%union.anon = type { i64, [56 x i8] }

; Function Attrs: mustprogress nounwind uwtable
define linkonce_odr hidden noundef i64 @_Z9mask_bitsll(i64 noundef %0, i64 noundef %1) #1 comdat {
  %3 = alloca i64, align 8
  %4 = alloca i64, align 8
  store i64 %0, ptr %3, align 8
  store i64 %1, ptr %4, align 8
  %5 = load i64, ptr %3, align 8
  %6 = load i64, ptr %4, align 8
  %7 = and i64 %5, %6
  ret i64 %7
}

; Function Attrs: mustprogress nounwind uwtable
define linkonce_odr hidden noundef zeroext i1 @_Z14is_set_nth_bitli(i64 noundef %0, i32 noundef %1) #1 comdat {
  %3 = alloca i64, align 8
  %4 = alloca i32, align 4
  store i64 %0, ptr %3, align 8
  store i32 %1, ptr %4, align 4
  %5 = load i64, ptr %3, align 8
  %6 = load i32, ptr %4, align 4
  %7 = icmp sge i32 %6, 64
  br i1 %7, label %8, label %9

8:                                                ; preds = %2
  br label %13

9:                                                ; preds = %2
  %10 = load i32, ptr %4, align 4
  %11 = zext i32 %10 to i64
  %12 = shl i64 1, %11
  br label %13

13:                                               ; preds = %9, %8
  %14 = phi i64 [ 0, %8 ], [ %12, %9 ]
  %15 = call noundef i64 @_Z9mask_bitsll(i64 noundef %5, i64 noundef %14)
  %16 = icmp ne i64 %15, 0
  ret i1 %16
}

; Function Attrs: mustprogress nounwind uwtable
define hidden noundef zeroext i1 @_ZNK12ciMethodData12is_arg_localEi(ptr noundef nonnull align 8 dereferenceable(176) %0, i32 noundef %1) #1 align 2 {
  %3 = alloca ptr, align 8
  %4 = alloca i32, align 4
  store ptr %0, ptr %3, align 8
  store i32 %1, ptr %4, align 4
  %5 = load ptr, ptr %3, align 8
  %6 = getelementptr inbounds %class.ciMethodData, ptr %5, i32 0, i32 10
  %7 = load i64, ptr %6, align 8
  %8 = load i32, ptr %4, align 4
  %9 = call noundef zeroext i1 @_Z14is_set_nth_bitli(i64 noundef %7, i32 noundef %8)
  ret i1 %9
}