; Function Attrs: mustprogress nofree norecurse nosync nounwind willreturn memory(argmem: read) uwtable
define hidden noundef zeroext i1 @_ZNK12ciMethodData12is_arg_localEi(ptr nocapture noundef nonnull readonly align 8 dereferenceable(176) %0, i32 noundef %1) local_unnamed_addr #4 align 2 {
  %3 = getelementptr inbounds i8, ptr %0, i64 64
  %4 = load i64, ptr %3, align 8
  %5 = icmp sgt i32 %1, 63
  %6 = zext nneg i32 %1 to i64
  %7 = shl nuw i64 1, %6
  %8 = select i1 %5, i64 0, i64 %7
  %9 = and i64 %4, %8
  %10 = icmp ne i64 %9, 0
  ret i1 %10
}